; Function Attrs: mustprogress nounwind uwtable
define hidden void @_ZN10ArrayKlass12oop_print_onEP7oopDescP12outputStream(ptr noundef nonnull align 8 dereferenceable(216) %0, ptr noundef %1, ptr noundef %2) unnamed_addr #0 align 2 {
  tail call void @_ZN5Klass12oop_print_onEP7oopDescP12outputStream(ptr noundef nonnull align 8 dereferenceable(196) %0, ptr noundef %1, ptr noundef %2) #13
  %4 = load i8, ptr @UseCompressedClassPointers, align 1
  %5 = trunc i8 %4 to i1
  %6 = select i1 %5, i64 12, i64 16
  %7 = getelementptr inbounds i8, ptr %1, i64 %6
  %8 = load i32, ptr %7, align 4
  tail call void (ptr, ptr, ...) @_ZN12outputStream8print_crEPKcz(ptr noundef nonnull align 8 dereferenceable(56) %2, ptr noundef nonnull @.str.10, i32 noundef %8) #13
  ret void
}